target datalayout = "e-m:e-p270:32:32-p271:32:32-p272:64:64-i64:64-i128:128-f80:128-n8:16:32:64-S128"
target triple = "x86_64-pc-linux-gnu"

%struct.LargeObjectDesc = type { i32, ptr, i32, i64, i32 }

@fscxt = internal global ptr null, align 8
@TopTransactionResourceOwner = external global ptr, align 8
@cookies = internal global ptr null, align 8
@cookies_size = internal global i32 0, align 4

; Function Attrs: nounwind uwtable
define internal void @closeLOfd(i32 noundef %0) #0 {
  %2 = alloca i32, align 4
  %3 = alloca ptr, align 8
  store i32 %0, ptr %2, align 4
  call void @llvm.lifetime.start.p0(i64 8, ptr %3) #8
  %4 = load ptr, ptr @cookies, align 8
  %5 = load i32, ptr %2, align 4
  %6 = sext i32 %5 to i64
  %7 = getelementptr inbounds ptr, ptr %4, i64 %6
  %8 = load ptr, ptr %7, align 8
  store ptr %8, ptr %3, align 8
  %9 = load ptr, ptr @cookies, align 8
  %10 = load i32, ptr %2, align 4
  %11 = sext i32 %10 to i64
  %12 = getelementptr inbounds ptr, ptr %9, i64 %11
  store ptr null, ptr %12, align 8
  %13 = load ptr, ptr %3, align 8
  %14 = getelementptr inbounds nuw %struct.LargeObjectDesc, ptr %13, i32 0, i32 1
  %15 = load ptr, ptr %14, align 8
  %16 = icmp ne ptr %15, null
  br i1 %16, label %17, label %22

17:                                               ; preds = %1
  %18 = load ptr, ptr %3, align 8
  %19 = getelementptr inbounds nuw %struct.LargeObjectDesc, ptr %18, i32 0, i32 1
  %20 = load ptr, ptr %19, align 8
  %21 = load ptr, ptr @TopTransactionResourceOwner, align 8
  call void @UnregisterSnapshotFromOwner(ptr noundef %20, ptr noundef %21)
  br label %22

22:                                               ; preds = %17, %1
  %23 = load ptr, ptr %3, align 8
  call void @inv_close(ptr noundef %23)
  call void @llvm.lifetime.end.p0(i64 8, ptr %3) #8
  ret void
}

; Function Attrs: nounwind uwtable
define dso_local void @AtEOSubXact_LargeObject(i1 noundef zeroext %0, i32 noundef %1, i32 noundef %2) #0 {
  %4 = alloca i8, align 1
  %5 = alloca i32, align 4
  %6 = alloca i32, align 4
  %7 = alloca i32, align 4
  %8 = alloca i32, align 4
  %9 = alloca ptr, align 8
  %10 = zext i1 %0 to i8
  store i8 %10, ptr %4, align 1
  store i32 %1, ptr %5, align 4
  store i32 %2, ptr %6, align 4
  call void @llvm.lifetime.start.p0(i64 4, ptr %7) #8
  %11 = load ptr, ptr @fscxt, align 8
  %12 = icmp eq ptr %11, null
  br i1 %12, label %13, label %14

13:                                               ; preds = %3
  store i32 1, ptr %8, align 4
  br label %48

14:                                               ; preds = %3
  store i32 0, ptr %7, align 4
  br label %15

15:                                               ; preds = %44, %14
  %16 = load i32, ptr %7, align 4
  %17 = load i32, ptr @cookies_size, align 4
  %18 = icmp slt i32 %16, %17
  br i1 %18, label %19, label %47

19:                                               ; preds = %15
  call void @llvm.lifetime.start.p0(i64 8, ptr %9) #8
  %20 = load ptr, ptr @cookies, align 8
  %21 = load i32, ptr %7, align 4
  %22 = sext i32 %21 to i64
  %23 = getelementptr inbounds ptr, ptr %20, i64 %22
  %24 = load ptr, ptr %23, align 8
  store ptr %24, ptr %9, align 8
  %25 = load ptr, ptr %9, align 8
  %26 = icmp ne ptr %25, null
  br i1 %26, label %27, label %43

27:                                               ; preds = %19
  %28 = load ptr, ptr %9, align 8
  %29 = getelementptr inbounds nuw %struct.LargeObjectDesc, ptr %28, i32 0, i32 2
  %30 = load i32, ptr %29, align 8
  %31 = load i32, ptr %5, align 4
  %32 = icmp eq i32 %30, %31
  br i1 %32, label %33, label %43

33:                                               ; preds = %27
  %34 = load i8, ptr %4, align 1, !range !6, !noundef !7
  %35 = trunc i8 %34 to i1
  br i1 %35, label %36, label %40

36:                                               ; preds = %33
  %37 = load i32, ptr %6, align 4
  %38 = load ptr, ptr %9, align 8
  %39 = getelementptr inbounds nuw %struct.LargeObjectDesc, ptr %38, i32 0, i32 2
  store i32 %37, ptr %39, align 8
  br label %42

40:                                               ; preds = %33
  %41 = load i32, ptr %7, align 4
  call void @closeLOfd(i32 noundef %41)
  br label %42

42:                                               ; preds = %40, %36
  br label %43

43:                                               ; preds = %42, %27, %19
  call void @llvm.lifetime.end.p0(i64 8, ptr %9) #8
  br label %44

44:                                               ; preds = %43
  %45 = load i32, ptr %7, align 4
  %46 = add i32 %45, 1
  store i32 %46, ptr %7, align 4
  br label %15, !llvm.loop !12

47:                                               ; preds = %15
  store i32 0, ptr %8, align 4
  br label %48

48:                                               ; preds = %47, %13
  call void @llvm.lifetime.end.p0(i64 4, ptr %7) #8
  %49 = load i32, ptr %8, align 4
  switch i32 %49, label %51 [
    i32 0, label %50
    i32 1, label %50
  ]

50:                                               ; preds = %48, %48
  ret void

51:                                               ; preds = %48
  unreachable
}