; Function Attrs: nounwind uwtable
define dso_local void @AtEOSubXact_LargeObject(i1 noundef zeroext %0, i32 noundef %1, i32 noundef %2) local_unnamed_addr #0 {
  %4 = load ptr, ptr @fscxt, align 8
  %5 = icmp ne ptr %4, null
  %6 = load i32, ptr @cookies_size, align 4
  %7 = icmp sgt i32 %6, 0
  %or.cond = select i1 %5, i1 %7, i1 false
  br i1 %or.cond, label %.lr.ph, label %.loopexit

.lr.ph:                                           ; preds = %3
  %8 = load ptr, ptr @cookies, align 8
  br i1 %0, label %.lr.ph.split.us, label %.lr.ph.split

.lr.ph.split.us:                                  ; preds = %.lr.ph
  %wide.trip.count = zext nneg i32 %6 to i64
  br label %9

9:                                                ; preds = %17, %.lr.ph.split.us
  %indvars.iv14 = phi i64 [ %indvars.iv.next15, %17 ], [ 0, %.lr.ph.split.us ]
  %10 = getelementptr inbounds nuw ptr, ptr %8, i64 %indvars.iv14
  %11 = load ptr, ptr %10, align 8
  %.not.us = icmp eq ptr %11, null
  br i1 %.not.us, label %17, label %12

12:                                               ; preds = %9
  %13 = getelementptr inbounds nuw i8, ptr %11, i64 16
  %14 = load i32, ptr %13, align 8
  %15 = icmp eq i32 %14, %1
  br i1 %15, label %16, label %17

16:                                               ; preds = %12
  store i32 %2, ptr %13, align 8
  br label %17

17:                                               ; preds = %16, %12, %9
  %indvars.iv.next15 = add nuw nsw i64 %indvars.iv14, 1
  %exitcond.not = icmp eq i64 %indvars.iv.next15, %wide.trip.count
  br i1 %exitcond.not, label %.loopexit, label %9, !llvm.loop !12

.lr.ph.split:                                     ; preds = %.lr.ph, %31
  %18 = phi i32 [ %32, %31 ], [ %6, %.lr.ph ]
  %19 = phi ptr [ %33, %31 ], [ %8, %.lr.ph ]
  %indvars.iv = phi i64 [ %indvars.iv.next, %31 ], [ 0, %.lr.ph ]
  %20 = getelementptr inbounds nuw ptr, ptr %19, i64 %indvars.iv
  %21 = load ptr, ptr %20, align 8
  %.not = icmp eq ptr %21, null
  br i1 %.not, label %31, label %22

22:                                               ; preds = %.lr.ph.split
  %23 = getelementptr inbounds nuw i8, ptr %21, i64 16
  %24 = load i32, ptr %23, align 8
  %25 = icmp eq i32 %24, %1
  br i1 %25, label %26, label %31

26:                                               ; preds = %22
  store ptr null, ptr %20, align 8
  %27 = getelementptr inbounds nuw i8, ptr %21, i64 8
  %28 = load ptr, ptr %27, align 8
  %.not.i = icmp eq ptr %28, null
  br i1 %.not.i, label %closeLOfd.exit, label %29

29:                                               ; preds = %26
  %30 = load ptr, ptr @TopTransactionResourceOwner, align 8
  tail call void @UnregisterSnapshotFromOwner(ptr noundef nonnull %28, ptr noundef %30) #10
  br label %closeLOfd.exit

closeLOfd.exit:                                   ; preds = %26, %29
  tail call void @inv_close(ptr noundef nonnull %21) #10
  %.pre = load ptr, ptr @cookies, align 8
  %.pre18 = load i32, ptr @cookies_size, align 4
  br label %31

31:                                               ; preds = %closeLOfd.exit, %22, %.lr.ph.split
  %32 = phi i32 [ %.pre18, %closeLOfd.exit ], [ %18, %22 ], [ %18, %.lr.ph.split ]
  %33 = phi ptr [ %.pre, %closeLOfd.exit ], [ %19, %22 ], [ %19, %.lr.ph.split ]
  %indvars.iv.next = add nuw nsw i64 %indvars.iv, 1
  %34 = sext i32 %32 to i64
  %35 = icmp slt i64 %indvars.iv.next, %34
  br i1 %35, label %.lr.ph.split, label %.loopexit, !llvm.loop !12

.loopexit:                                        ; preds = %31, %17, %3
  ret void
}